target datalayout = "e-m:e-p270:32:32-p271:32:32-p272:64:64-i64:64-i128:128-f80:128-n8:16:32:64-S128"
target triple = "x86_64-pc-linux-gnu"

%"struct.duckdb_zstd::COVER_ctx_t" = type { ptr, ptr, ptr, i64, i64, i64, ptr, i64, ptr, ptr, i32 }

; Function Attrs: inlinehint mustprogress nounwind uwtable
define internal noundef i64 @_ZN11duckdb_zstdL10MEM_swap64Em(i64 noundef %0) #9 {
  %2 = alloca i64, align 8
  store i64 %0, ptr %2, align 8, !tbaa !10
  %3 = load i64, ptr %2, align 8, !tbaa !10
  %4 = call i64 @llvm.bswap.i64(i64 %3)
  ret i64 %4
}

; Function Attrs: inlinehint mustprogress nounwind uwtable
define internal noundef i64 @_ZN11duckdb_zstdL10MEM_read64EPKv(ptr noundef %0) #9 {
  %2 = alloca ptr, align 8
  store ptr %0, ptr %2, align 8, !tbaa !21
  %3 = load ptr, ptr %2, align 8, !tbaa !21
  %4 = load i64, ptr %3, align 1, !tbaa !10
  ret i64 %4
}

; Function Attrs: inlinehint mustprogress nounwind uwtable
define internal noundef i32 @_ZN11duckdb_zstdL18MEM_isLittleEndianEv() #9 {
  ret i32 1
}

; Function Attrs: inlinehint mustprogress uwtable
define internal noundef i64 @_ZN11duckdb_zstdL12MEM_readLE64EPKv(ptr noundef %0) #8 {
  %2 = alloca i64, align 8
  %3 = alloca ptr, align 8
  store ptr %0, ptr %3, align 8, !tbaa !21
  %4 = call noundef i32 @_ZN11duckdb_zstdL18MEM_isLittleEndianEv()
  %5 = icmp ne i32 %4, 0
  br i1 %5, label %6, label %9

6:                                                ; preds = %1
  %7 = load ptr, ptr %3, align 8, !tbaa !21
  %8 = call noundef i64 @_ZN11duckdb_zstdL10MEM_read64EPKv(ptr noundef %7)
  store i64 %8, ptr %2, align 8
  br label %13

9:                                                ; preds = %1
  %10 = load ptr, ptr %3, align 8, !tbaa !21
  %11 = call noundef i64 @_ZN11duckdb_zstdL10MEM_read64EPKv(ptr noundef %10)
  %12 = call noundef i64 @_ZN11duckdb_zstdL10MEM_swap64Em(i64 noundef %11)
  store i64 %12, ptr %2, align 8
  br label %13

13:                                               ; preds = %9, %6
  %14 = load i64, ptr %2, align 8
  ret i64 %14
}

; Function Attrs: mustprogress uwtable
define internal noundef i32 @_ZN11duckdb_zstdL10COVER_cmp8EPNS_11COVER_ctx_tEPKvS3_(ptr noundef %0, ptr noundef %1, ptr noundef %2) #2 {
  %4 = alloca i32, align 4
  %5 = alloca ptr, align 8
  %6 = alloca ptr, align 8
  %7 = alloca ptr, align 8
  %8 = alloca i64, align 8
  %9 = alloca i64, align 8
  %10 = alloca i64, align 8
  %11 = alloca i32, align 4
  store ptr %0, ptr %5, align 8, !tbaa !21
  store ptr %1, ptr %6, align 8, !tbaa !21
  store ptr %2, ptr %7, align 8, !tbaa !21
  call void @llvm.lifetime.start.p0(i64 8, ptr %8) #12
  %12 = load ptr, ptr %5, align 8, !tbaa !21
  %13 = getelementptr inbounds nuw %"struct.duckdb_zstd::COVER_ctx_t", ptr %12, i32 0, i32 10
  %14 = load i32, ptr %13, align 8, !tbaa !44
  %15 = icmp eq i32 %14, 8
  br i1 %15, label %16, label %17

16:                                               ; preds = %3
  br label %25

17:                                               ; preds = %3
  %18 = load ptr, ptr %5, align 8, !tbaa !21
  %19 = getelementptr inbounds nuw %"struct.duckdb_zstd::COVER_ctx_t", ptr %18, i32 0, i32 10
  %20 = load i32, ptr %19, align 8, !tbaa !44
  %21 = mul i32 8, %20
  %22 = zext i32 %21 to i64
  %23 = shl i64 1, %22
  %24 = sub i64 %23, 1
  br label %25

25:                                               ; preds = %17, %16
  %26 = phi i64 [ -1, %16 ], [ %24, %17 ]
  store i64 %26, ptr %8, align 8, !tbaa !10
  call void @llvm.lifetime.start.p0(i64 8, ptr %9) #12
  %27 = load ptr, ptr %5, align 8, !tbaa !21
  %28 = getelementptr inbounds nuw %"struct.duckdb_zstd::COVER_ctx_t", ptr %27, i32 0, i32 0
  %29 = load ptr, ptr %28, align 8, !tbaa !36
  %30 = load ptr, ptr %6, align 8, !tbaa !21
  %31 = load i32, ptr %30, align 4, !tbaa !8
  %32 = zext i32 %31 to i64
  %33 = getelementptr inbounds nuw i8, ptr %29, i64 %32
  %34 = call noundef i64 @_ZN11duckdb_zstdL12MEM_readLE64EPKv(ptr noundef %33)
  %35 = load i64, ptr %8, align 8, !tbaa !10
  %36 = and i64 %34, %35
  store i64 %36, ptr %9, align 8, !tbaa !10
  call void @llvm.lifetime.start.p0(i64 8, ptr %10) #12
  %37 = load ptr, ptr %5, align 8, !tbaa !21
  %38 = getelementptr inbounds nuw %"struct.duckdb_zstd::COVER_ctx_t", ptr %37, i32 0, i32 0
  %39 = load ptr, ptr %38, align 8, !tbaa !36
  %40 = load ptr, ptr %7, align 8, !tbaa !21
  %41 = load i32, ptr %40, align 4, !tbaa !8
  %42 = zext i32 %41 to i64
  %43 = getelementptr inbounds nuw i8, ptr %39, i64 %42
  %44 = call noundef i64 @_ZN11duckdb_zstdL12MEM_readLE64EPKv(ptr noundef %43)
  %45 = load i64, ptr %8, align 8, !tbaa !10
  %46 = and i64 %44, %45
  store i64 %46, ptr %10, align 8, !tbaa !10
  %47 = load i64, ptr %9, align 8, !tbaa !10
  %48 = load i64, ptr %10, align 8, !tbaa !10
  %49 = icmp ult i64 %47, %48
  br i1 %49, label %50, label %51

50:                                               ; preds = %25
  store i32 -1, ptr %4, align 4
  store i32 1, ptr %11, align 4
  br label %56

51:                                               ; preds = %25
  %52 = load i64, ptr %9, align 8, !tbaa !10
  %53 = load i64, ptr %10, align 8, !tbaa !10
  %54 = icmp ugt i64 %52, %53
  %55 = zext i1 %54 to i32
  store i32 %55, ptr %4, align 4
  store i32 1, ptr %11, align 4
  br label %56

56:                                               ; preds = %51, %50
  call void @llvm.lifetime.end.p0(i64 8, ptr %10) #12
  call void @llvm.lifetime.end.p0(i64 8, ptr %9) #12
  call void @llvm.lifetime.end.p0(i64 8, ptr %8) #12
  %57 = load i32, ptr %4, align 4
  ret i32 %57
}